; Function Attrs: nounwind uwtable
define ptr @l_Lean_Meta_withLocalDeclsDND___at_Lean_Elab_Tactic_BVDecide_Frontend_Normalize_intToBitVecPass_replaceSize___spec__12___rarg(ptr noundef %0, ptr noundef %1, ptr noundef %2, ptr noundef %3, ptr noundef %4, ptr noundef %5, ptr noundef %6, ptr noundef %7, ptr noundef %8) #1 {
  %10 = getelementptr i8, ptr %1, i64 8
  %.val = load i64, ptr %10, align 8, !tbaa !12
  %11 = tail call ptr @l_Array_mapMUnsafe_map___at_Lean_Elab_Tactic_BVDecide_Frontend_Normalize_intToBitVecPass_replaceSize___spec__13(i64 noundef %.val, i64 noundef 0, ptr noundef %1)
  %12 = getelementptr i8, ptr %11, i64 8
  %.val.i = load i64, ptr %12, align 8, !tbaa !12
  %13 = tail call ptr @l_Array_mapMUnsafe_map___at_Lean_Elab_Tactic_BVDecide_Frontend_Normalize_intToBitVecPass_replaceSize___spec__15(i64 noundef %.val.i, i64 noundef 0, ptr noundef %11)
  %14 = load ptr, ptr @l_Lean_Meta_withLocalDecls___at_Lean_Elab_Tactic_BVDecide_Frontend_Normalize_intToBitVecPass_replaceSize___spec__16___rarg___closed__1, align 8, !tbaa !9
  %15 = tail call ptr @l_Lean_Meta_withLocalDecls_loop___at_Lean_Elab_Tactic_BVDecide_Frontend_Normalize_intToBitVecPass_replaceSize___spec__17___rarg(ptr noundef %13, ptr noundef %2, ptr noundef %0, ptr noundef %14, ptr noundef %3, ptr noundef %4, ptr noundef %5, ptr noundef %6, ptr noundef %7, ptr noundef %8)
  ret ptr %15
}